; ModuleID = '56/1005.c'
source_filename = "56/1005.c"
target datalayout = "e-m:e-p270:32:32-p271:32:32-p272:64:64-i64:64-f80:128-n8:16:32:64-S128"
target triple = "x86_64-pc-linux-gnu"

@.str = private unnamed_addr constant [3 x i8] c"%d\00", align 1
@.str.1 = private unnamed_addr constant [4 x i8] c"%d\0A\00", align 1
@.str.2 = private unnamed_addr constant [6 x i8] c"%d%d\0A\00", align 1
@.str.3 = private unnamed_addr constant [8 x i8] c"%d%d%d\0A\00", align 1
@.str.4 = private unnamed_addr constant [10 x i8] c"%d%d%d%d\0A\00", align 1
@.str.5 = private unnamed_addr constant [12 x i8] c"%d%d%d%d%d\0A\00", align 1

; Function Attrs: noinline nounwind uwtable
define dso_local i32 @main() #0 {
  %1 = alloca i32, align 4
  %2 = alloca i32, align 4
  %3 = alloca i32, align 4
  %4 = alloca i32, align 4
  %5 = alloca i32, align 4
  %6 = alloca i32, align 4
  %7 = alloca i32, align 4
  store i32 0, i32* %1, align 4
  %8 = call i32 (i8*, ...) @__isoc99_scanf(i8* getelementptr inbounds ([3 x i8], [3 x i8]* @.str, i64 0, i64 0), i32* %2)
  %9 = load i32, i32* %2, align 4
  %10 = sdiv i32 %9, 10000
  store i32 %10, i32* %3, align 4
  %11 = load i32, i32* %2, align 4
  %12 = load i32, i32* %3, align 4
  %13 = mul nsw i32 %12, 10000
  %14 = sub nsw i32 %11, %13
  %15 = sdiv i32 %14, 1000
  store i32 %15, i32* %4, align 4
  %16 = load i32, i32* %2, align 4
  %17 = load i32, i32* %3, align 4
  %18 = mul nsw i32 %17, 10000
  %19 = sub nsw i32 %16, %18
  %20 = load i32, i32* %4, align 4
  %21 = mul nsw i32 %20, 1000
  %22 = sub nsw i32 %19, %21
  %23 = sdiv i32 %22, 100
  store i32 %23, i32* %5, align 4
  %24 = load i32, i32* %2, align 4
  %25 = load i32, i32* %3, align 4
  %26 = mul nsw i32 %25, 10000
  %27 = sub nsw i32 %24, %26
  %28 = load i32, i32* %4, align 4
  %29 = mul nsw i32 %28, 1000
  %30 = sub nsw i32 %27, %29
  %31 = load i32, i32* %5, align 4
  %32 = mul nsw i32 %31, 100
  %33 = sub nsw i32 %30, %32
  %34 = sdiv i32 %33, 10
  store i32 %34, i32* %6, align 4
  %35 = load i32, i32* %2, align 4
  %36 = srem i32 %35, 10
  store i32 %36, i32* %7, align 4
  %37 = load i32, i32* %6, align 4
  %38 = icmp eq i32 %37, 0
  br i1 %38, label %39, label %42

39:                                               ; preds = %0
  %40 = load i32, i32* %7, align 4
  %41 = call i32 (i8*, ...) @printf(i8* getelementptr inbounds ([4 x i8], [4 x i8]* @.str.1, i64 0, i64 0), i32 %40)
  br label %76

42:                                               ; preds = %0
  %43 = load i32, i32* %5, align 4
  %44 = icmp eq i32 %43, 0
  br i1 %44, label %45, label %49

45:                                               ; preds = %42
  %46 = load i32, i32* %7, align 4
  %47 = load i32, i32* %6, align 4
  %48 = call i32 (i8*, ...) @printf(i8* getelementptr inbounds ([6 x i8], [6 x i8]* @.str.2, i64 0, i64 0), i32 %46, i32 %47)
  br label %75

49:                                               ; preds = %42
  %50 = load i32, i32* %4, align 4
  %51 = icmp eq i32 %50, 0
  br i1 %51, label %52, label %57

52:                                               ; preds = %49
  %53 = load i32, i32* %7, align 4
  %54 = load i32, i32* %6, align 4
  %55 = load i32, i32* %5, align 4
  %56 = call i32 (i8*, ...) @printf(i8* getelementptr inbounds ([8 x i8], [8 x i8]* @.str.3, i64 0, i64 0), i32 %53, i32 %54, i32 %55)
  br label %74

57:                                               ; preds = %49
  %58 = load i32, i32* %3, align 4
  %59 = icmp eq i32 %58, 0
  br i1 %59, label %60, label %66

60:                                               ; preds = %57
  %61 = load i32, i32* %7, align 4
  %62 = load i32, i32* %6, align 4
  %63 = load i32, i32* %5, align 4
  %64 = load i32, i32* %4, align 4
  %65 = call i32 (i8*, ...) @printf(i8* getelementptr inbounds ([10 x i8], [10 x i8]* @.str.4, i64 0, i64 0), i32 %61, i32 %62, i32 %63, i32 %64)
  br label %73

66:                                               ; preds = %57
  %67 = load i32, i32* %7, align 4
  %68 = load i32, i32* %6, align 4
  %69 = load i32, i32* %5, align 4
  %70 = load i32, i32* %4, align 4
  %71 = load i32, i32* %3, align 4
  %72 = call i32 (i8*, ...) @printf(i8* getelementptr inbounds ([12 x i8], [12 x i8]* @.str.5, i64 0, i64 0), i32 %67, i32 %68, i32 %69, i32 %70, i32 %71)
  br label %73

73:                                               ; preds = %66, %60
  br label %74

74:                                               ; preds = %73, %52
  br label %75

75:                                               ; preds = %74, %45
  br label %76

76:                                               ; preds = %75, %39
  ret i32 0
}

declare dso_local i32 @__isoc99_scanf(i8*, ...) #1

declare dso_local i32 @printf(i8*, ...) #1


!llvm.module.flags = !{!0}
!llvm.ident = !{!1}

!0 = !{i32 1, !"wchar_size", i32 4}
!1 = !{!"clang version 10.0.0-4ubuntu1 "}
